target datalayout = "e-m:e-p270:32:32-p271:32:32-p272:64:64-i64:64-i128:128-f80:128-n8:16:32:64-S128"
target triple = "x86_64-pc-linux-gnu"

%struct.AV1PixelRect = type { i32, i32, i32, i32 }
%struct.RestorationTileLimits = type { i32, i32, i32, i32 }

; Function Attrs: nounwind uwtable
define hidden void @av1_foreach_rest_unit_in_row(ptr noundef %0, ptr noundef %1, ptr noundef %2, i32 noundef %3, i32 noundef %4, i32 noundef %5, i32 noundef %6, i32 noundef %7, i32 noundef %8, ptr noundef %9, ptr noundef %10, ptr noundef %11, ptr noundef %12, ptr noundef %13, ptr noundef %14) #0 {
  %16 = alloca ptr, align 8
  %17 = alloca ptr, align 8
  %18 = alloca ptr, align 8
  %19 = alloca i32, align 4
  %20 = alloca i32, align 4
  %21 = alloca i32, align 4
  %22 = alloca i32, align 4
  %23 = alloca i32, align 4
  %24 = alloca i32, align 4
  %25 = alloca ptr, align 8
  %26 = alloca ptr, align 8
  %27 = alloca ptr, align 8
  %28 = alloca ptr, align 8
  %29 = alloca ptr, align 8
  %30 = alloca ptr, align 8
  %31 = alloca i32, align 4
  %32 = alloca i32, align 4
  %33 = alloca i32, align 4
  %34 = alloca i32, align 4
  %35 = alloca i32, align 4
  %36 = alloca i32, align 4
  %37 = alloca i32, align 4
  store ptr %0, ptr %16, align 8
  store ptr %1, ptr %17, align 8
  store ptr %2, ptr %18, align 8
  store i32 %3, ptr %19, align 4
  store i32 %4, ptr %20, align 4
  store i32 %5, ptr %21, align 4
  store i32 %6, ptr %22, align 4
  store i32 %7, ptr %23, align 4
  store i32 %8, ptr %24, align 4
  store ptr %9, ptr %25, align 8
  store ptr %10, ptr %26, align 8
  store ptr %11, ptr %27, align 8
  store ptr %12, ptr %28, align 8
  store ptr %13, ptr %29, align 8
  store ptr %14, ptr %30, align 8
  %38 = load ptr, ptr %17, align 8
  %39 = getelementptr inbounds nuw %struct.AV1PixelRect, ptr %38, i32 0, i32 2
  %40 = load i32, ptr %39, align 4
  %41 = load ptr, ptr %17, align 8
  %42 = getelementptr inbounds nuw %struct.AV1PixelRect, ptr %41, i32 0, i32 0
  %43 = load i32, ptr %42, align 4
  %44 = sub nsw i32 %40, %43
  store i32 %44, ptr %31, align 4
  %45 = load i32, ptr %20, align 4
  %46 = mul nsw i32 %45, 3
  %47 = sdiv i32 %46, 2
  store i32 %47, ptr %32, align 4
  store i32 0, ptr %33, align 4
  store i32 0, ptr %34, align 4
  br label %48

48:                                               ; preds = %104, %15
  %49 = load i32, ptr %33, align 4
  %50 = load i32, ptr %31, align 4
  %51 = icmp slt i32 %49, %50
  br i1 %51, label %52, label %123

52:                                               ; preds = %48
  %53 = load i32, ptr %31, align 4
  %54 = load i32, ptr %33, align 4
  %55 = sub nsw i32 %53, %54
  store i32 %55, ptr %35, align 4
  %56 = load i32, ptr %35, align 4
  %57 = load i32, ptr %32, align 4
  %58 = icmp slt i32 %56, %57
  br i1 %58, label %59, label %61

59:                                               ; preds = %52
  %60 = load i32, ptr %35, align 4
  br label %63

61:                                               ; preds = %52
  %62 = load i32, ptr %20, align 4
  br label %63

63:                                               ; preds = %61, %59
  %64 = phi i32 [ %60, %59 ], [ %62, %61 ]
  store i32 %64, ptr %36, align 4
  %65 = load ptr, ptr %17, align 8
  %66 = getelementptr inbounds nuw %struct.AV1PixelRect, ptr %65, i32 0, i32 0
  %67 = load i32, ptr %66, align 4
  %68 = load i32, ptr %33, align 4
  %69 = add nsw i32 %67, %68
  %70 = load ptr, ptr %16, align 8
  %71 = getelementptr inbounds nuw %struct.RestorationTileLimits, ptr %70, i32 0, i32 0
  store i32 %69, ptr %71, align 4
  %72 = load ptr, ptr %17, align 8
  %73 = getelementptr inbounds nuw %struct.AV1PixelRect, ptr %72, i32 0, i32 0
  %74 = load i32, ptr %73, align 4
  %75 = load i32, ptr %33, align 4
  %76 = add nsw i32 %74, %75
  %77 = load i32, ptr %36, align 4
  %78 = add nsw i32 %76, %77
  %79 = load ptr, ptr %16, align 8
  %80 = getelementptr inbounds nuw %struct.RestorationTileLimits, ptr %79, i32 0, i32 1
  store i32 %78, ptr %80, align 4
  %81 = load i32, ptr %21, align 4
  %82 = load i32, ptr %19, align 4
  %83 = load i32, ptr %22, align 4
  %84 = mul nsw i32 %82, %83
  %85 = add nsw i32 %81, %84
  %86 = load i32, ptr %34, align 4
  %87 = add nsw i32 %85, %86
  store i32 %87, ptr %37, align 4
  %88 = load ptr, ptr %28, align 8
  %89 = load ptr, ptr %30, align 8
  %90 = load i32, ptr %19, align 4
  %91 = load i32, ptr %34, align 4
  %92 = load i32, ptr %24, align 4
  call void %88(ptr noundef %89, i32 noundef %90, i32 noundef %91, i32 noundef %92)
  %93 = load i32, ptr %19, align 4
  %94 = add nsw i32 %93, 1
  %95 = load i32, ptr %23, align 4
  %96 = icmp slt i32 %94, %95
  br i1 %96, label %97, label %104

97:                                               ; preds = %63
  %98 = load ptr, ptr %28, align 8
  %99 = load ptr, ptr %30, align 8
  %100 = load i32, ptr %19, align 4
  %101 = add nsw i32 %100, 2
  %102 = load i32, ptr %34, align 4
  %103 = load i32, ptr %24, align 4
  call void %98(ptr noundef %99, i32 noundef %101, i32 noundef %102, i32 noundef %103)
  br label %104

104:                                              ; preds = %97, %63
  %105 = load ptr, ptr %18, align 8
  %106 = load ptr, ptr %16, align 8
  %107 = load ptr, ptr %17, align 8
  %108 = load i32, ptr %37, align 4
  %109 = load ptr, ptr %25, align 8
  %110 = load ptr, ptr %26, align 8
  %111 = load ptr, ptr %27, align 8
  call void %105(ptr noundef %106, ptr noundef %107, i32 noundef %108, ptr noundef %109, ptr noundef %110, ptr noundef %111)
  %112 = load ptr, ptr %29, align 8
  %113 = load ptr, ptr %30, align 8
  %114 = load i32, ptr %19, align 4
  %115 = load i32, ptr %34, align 4
  %116 = load i32, ptr %22, align 4
  %117 = load i32, ptr %24, align 4
  call void %112(ptr noundef %113, i32 noundef %114, i32 noundef %115, i32 noundef %116, i32 noundef %117)
  %118 = load i32, ptr %36, align 4
  %119 = load i32, ptr %33, align 4
  %120 = add nsw i32 %119, %118
  store i32 %120, ptr %33, align 4
  %121 = load i32, ptr %34, align 4
  %122 = add nsw i32 %121, 1
  store i32 %122, ptr %34, align 4
  br label %48, !llvm.loop !32

123:                                              ; preds = %48
  ret void
}