; Function Attrs: nounwind uwtable
define hidden void @av1_foreach_rest_unit_in_row(ptr noundef %0, ptr noundef %1, ptr noundef readonly captures(none) %2, i32 noundef %3, i32 noundef %4, i32 noundef %5, i32 noundef %6, i32 noundef %7, i32 noundef %8, ptr noundef %9, ptr noundef %10, ptr noundef %11, ptr noundef readonly captures(none) %12, ptr noundef readonly captures(none) %13, ptr noundef %14) local_unnamed_addr #2 {
  %16 = getelementptr inbounds nuw i8, ptr %1, i64 8
  %17 = load i32, ptr %16, align 4
  %18 = load i32, ptr %1, align 4
  %19 = sub nsw i32 %17, %18
  %20 = mul nsw i32 %4, 3
  %21 = sdiv i32 %20, 2
  %22 = icmp sgt i32 %19, 0
  br i1 %22, label %.lr.ph, label %._crit_edge

.lr.ph:                                           ; preds = %15
  %23 = getelementptr inbounds nuw i8, ptr %0, i64 4
  %24 = mul nsw i32 %6, %3
  %25 = add nsw i32 %24, %5
  %26 = add i32 %3, 1
  %27 = icmp slt i32 %26, %7
  %28 = add nsw i32 %3, 2
  br i1 %27, label %.lr.ph.split.us, label %.lr.ph.split

.lr.ph.split.us:                                  ; preds = %.lr.ph, %.lr.ph.split.us
  %.052.us = phi i32 [ %35, %.lr.ph.split.us ], [ 0, %.lr.ph ]
  %.04951.us = phi i32 [ %38, %.lr.ph.split.us ], [ 0, %.lr.ph ]
  %29 = sub nsw i32 %19, %.052.us
  %30 = icmp slt i32 %29, %21
  %31 = select i1 %30, i32 %29, i32 %4
  %32 = load i32, ptr %1, align 4
  %33 = add nsw i32 %32, %.052.us
  store i32 %33, ptr %0, align 4
  %34 = load i32, ptr %1, align 4
  %35 = add i32 %31, %.052.us
  %36 = add i32 %35, %34
  store i32 %36, ptr %23, align 4
  %37 = add nsw i32 %25, %.04951.us
  tail call void %12(ptr noundef %14, i32 noundef %3, i32 noundef %.04951.us, i32 noundef %8) #12
  tail call void %12(ptr noundef %14, i32 noundef %28, i32 noundef %.04951.us, i32 noundef %8) #12
  tail call void %2(ptr noundef nonnull %0, ptr noundef nonnull %1, i32 noundef %37, ptr noundef %9, ptr noundef %10, ptr noundef %11) #12
  tail call void %13(ptr noundef %14, i32 noundef %3, i32 noundef %.04951.us, i32 noundef %6, i32 noundef %8) #12
  %38 = add nuw nsw i32 %.04951.us, 1
  %39 = icmp slt i32 %35, %19
  br i1 %39, label %.lr.ph.split.us, label %._crit_edge, !llvm.loop !34

.lr.ph.split:                                     ; preds = %.lr.ph, %.lr.ph.split
  %.052 = phi i32 [ %46, %.lr.ph.split ], [ 0, %.lr.ph ]
  %.04951 = phi i32 [ %49, %.lr.ph.split ], [ 0, %.lr.ph ]
  %40 = sub nsw i32 %19, %.052
  %41 = icmp slt i32 %40, %21
  %42 = select i1 %41, i32 %40, i32 %4
  %43 = load i32, ptr %1, align 4
  %44 = add nsw i32 %43, %.052
  store i32 %44, ptr %0, align 4
  %45 = load i32, ptr %1, align 4
  %46 = add i32 %42, %.052
  %47 = add i32 %46, %45
  store i32 %47, ptr %23, align 4
  %48 = add nsw i32 %25, %.04951
  tail call void %12(ptr noundef %14, i32 noundef %3, i32 noundef %.04951, i32 noundef %8) #12
  tail call void %2(ptr noundef nonnull %0, ptr noundef nonnull %1, i32 noundef %48, ptr noundef %9, ptr noundef %10, ptr noundef %11) #12
  tail call void %13(ptr noundef %14, i32 noundef %3, i32 noundef %.04951, i32 noundef %6, i32 noundef %8) #12
  %49 = add nuw nsw i32 %.04951, 1
  %50 = icmp slt i32 %46, %19
  br i1 %50, label %.lr.ph.split, label %._crit_edge, !llvm.loop !34

._crit_edge:                                      ; preds = %.lr.ph.split, %.lr.ph.split.us, %15
  ret void
}